(lp1
S'<START>'
p2
aS'<UNK>'
p3
aS'<END>'
p4
aV0
aV<div
p5
aV</div>
p6
aV<a
p7
aV</a>
p8
aVto
p9
aV<span
p10
aVversion="1.1"
p11
aV<svg
p12
aVfill-rule="evenodd"
p13
aVviewBox="0
p14
aV16"
p15
aVclass="octicon
p16
aV<meta
p17
aVheight="16"
p18
aVaria-hidden="true"
p19
aV1
aVgo
p20
aV8
aVdata-ga-click="Header,
p21
aV2
aV16
p22
aV/><meta
p23
aVtype="hidden"
p24
aV<button
p25
aVthis
p26
aV14
p27
aV12
p28
aV</li>
p29
aV/>
p30
aVwidth="12"><path
p31
aV<li><a
p32
aV1.993
p33
aVclass="dropdown-item"
p34
aV1.2
p35
aV<link
p36
aVdata-ga-click="Footer,
p37
aV</button>
p38
aV<!--
p39
aV/></div>
p40
aVstyle="margin:0;padding:0;display:inline"><input
p41
aVname="utf8"
p42
aV--><!--
p43
aVaccept-charset="UTF-8"
p44
aVclass="js-selected-navigation-item
p45
aVbtn-sm
p46
aV'"`
p47
aV<li
p48
aVwidth="16"><path
p49
aV4
aVvalue="&#x2713;"
p50
aV</textarea></xmp>
p51
aV</span>
p52
aV--></option></form><form
p53
aV</ul>
p54
aVdata-hotkey="g
p55
aV<input
p56
aVmethod="post"><div
p57
aVtype="submit"
p58
aV</form>
p59
aV<ul
p60
aVclass="btn
p61
aVname="authenticity_token"
p62
aV/><input
p63
aVreponav-item"
p64
aV0-1
p65
aV1.2.55
p66
aV6
aV1.48
p67
aVyour
p68
aVrepository">
p69
aV1.2-1.2
p70
aV4-4
p71
aVwidth="14"><path
p72
aVtooltipped
p73
aV1.2-1.2.65
p74
aV2-2
p75
aV7
aVd="M12
p76
aVitemscope
p77
aVcreate
p78
aVdata-ga-click="Repository,
p79
aV.65-.55
p80
aVtype="button"
p81
a.